Certificate:
    Data:
        Version: 3 (0x2)
        Serial Number:
            88:3b:35:c3:a1:86:09:2b
        Signature Algorithm: sha384WithRSAEncryption
        Issuer: C=Unknown, ST=Unknown, L=Unknown, O=Unknown, OU=Unknown, CN=localhost
        Validity
            Not Before: Jul  6 03:39:45 2026 GMT
            Not After : Jun 12 03:39:45 2126 GMT
        Subject: C=Unknown, ST=Unknown, L=Unknown, O=Unknown, OU=Unknown, CN=localhost
        Subject Public Key Info:
            Public Key Algorithm: rsaEncryption
                Public-Key: (2048 bit)
                Modulus:
                    00:ae:08:73:75:a7:51:fd:6c:f7:9e:03:4e:26:5c:
                    8d:55:b3:65:a1:4f:18:56:a5:0f:6e:8d:ed:06:ab:
                    89:0b:a6:04:6d:f1:f3:2c:0a:4d:c6:fb:bc:56:8d:
                    61:94:16:c6:96:f4:ee:05:3d:eb:4b:58:07:26:bb:
                    ba:c3:76:2e:3d:ed:dd:a1:22:76:00:4c:40:d4:1e:
                    41:ba:98:fe:b0:a0:3c:77:76:c8:30:11:a2:00:66:
                    0b:33:75:18:a7:02:01:00:9e:9f:00:27:44:7a:c2:
                    4c:1e:d3:0f:e4:c2:97:4e:5d:10:db:6f:94:4e:7c:
                    a1:37:c4:a5:29:5b:06:83:b1:ba:69:08:f3:e5:cf:
                    26:b0:40:1c:55:b0:76:50:a5:28:27:7e:1a:9d:db:
                    70:2f:c8:5b:b5:3d:9c:a9:3a:e3:63:21:eb:6b:1d:
                    95:8c:71:93:43:e4:3a:4d:a7:54:dd:a0:24:dd:81:
                    e4:b0:22:48:37:05:9a:85:c9:3f:48:e1:6a:82:d3:
                    c4:a5:95:f6:53:91:87:d9:ff:d8:92:00:29:93:01:
                    ae:15:f5:9e:01:cd:6a:2e:8c:dd:a2:fc:18:47:f9:
                    e1:b3:56:d1:98:ba:f0:7b:59:8d:6e:b1:42:3b:59:
                    8f:82:4e:b3:7e:17:49:04:ac:0d:f4:e7:69:50:fa:
                    37:03
                Exponent: 65537 (0x10001)
        X509v3 extensions:
            X509v3 Subject Key Identifier: 
                66:5F:E7:A5:E0:E4:C9:2D:38:6D:E9:DF:D7:F2:47:A6:E7:95:7A:C9
            X509v3 Subject Alternative Name: 
                DNS:localhost, IP Address:127.0.0.1
    Signature Algorithm: sha384WithRSAEncryption
    Signature Value:
        96:e8:0a:48:21:4c:b2:13:c1:0a:5f:31:48:a4:31:ca:bc:0e:
        20:30:96:41:07:01:93:87:c9:17:87:a7:ac:36:db:b0:40:54:
        08:a0:a7:f9:4c:46:67:44:20:54:81:b5:02:d3:5a:72:95:c9:
        c9:96:05:a7:b2:e4:f1:f7:6a:45:66:ab:2d:f6:af:64:a6:bc:
        dc:7e:49:96:ad:74:32:fa:6d:f8:bc:2b:b3:b5:1b:20:04:5c:
        fd:0a:d4:fe:ce:9b:66:76:3b:6c:ce:db:9c:3f:44:21:4e:00:
        83:52:15:61:29:34:ad:8d:09:66:c4:e3:b3:9e:23:2a:0b:f2:
        da:53:a6:21:6a:4d:01:4c:4c:e8:1b:78:51:43:12:b4:f5:85:
        ee:9a:e6:3b:8f:4a:2e:50:01:db:b3:d8:f4:cf:62:40:cf:45:
        9e:8a:c5:ef:2b:bc:b8:6a:50:52:53:5e:03:17:99:e6:f3:43:
        24:66:64:2b:0a:02:ff:6a:4e:7a:b9:4a:6a:e3:bd:9c:11:31:
        f7:fe:f1:ea:ef:b8:dd:66:71:b7:1d:59:af:17:5f:1b:49:88:
        fb:34:56:bd:70:40:bd:e9:d9:27:14:bb:10:f4:c7:87:82:27:
        e6:c8:d8:ae:82:70:3a:b3:02:b3:02:46:89:cd:33:0a:63:a7:
        d1:ee:87:ce
-----BEGIN CERTIFICATE-----
MIIDnjCCAoagAwIBAgIJAIg7NcOhhgkrMA0GCSqGSIb3DQEBDAUAMG4xEDAOBgNV
BAYTB1Vua25vd24xEDAOBgNVBAgTB1Vua25vd24xEDAOBgNVBAcTB1Vua25vd24x
EDAOBgNVBAoTB1Vua25vd24xEDAOBgNVBAsTB1Vua25vd24xEjAQBgNVBAMTCWxv
Y2FsaG9zdDAgFw0yNjA3MDYwMzM5NDVaGA8yMTI2MDYxMjAzMzk0NVowbjEQMA4G
A1UEBhMHVW5rbm93bjEQMA4GA1UECBMHVW5rbm93bjEQMA4GA1UEBxMHVW5rbm93
bjEQMA4GA1UEChMHVW5rbm93bjEQMA4GA1UECxMHVW5rbm93bjESMBAGA1UEAxMJ
bG9jYWxob3N0MIIBIjANBgkqhkiG9w0BAQEFAAOCAQ8AMIIBCgKCAQEArghzdadR
/Wz3ngNOJlyNVbNloU8YVqUPbo3tBquJC6YEbfHzLApNxvu8Vo1hlBbGlvTuBT3r
S1gHJru6w3YuPe3doSJ2AExA1B5Bupj+sKA8d3bIMBGiAGYLM3UYpwIBAJ6fACdE
esJMHtMP5MKXTl0Q22+UTnyhN8SlKVsGg7G6aQjz5c8msEAcVbB2UKUoJ34andtw
L8hbtT2cqTrjYyHrax2VjHGTQ+Q6TadU3aAk3YHksCJINwWahck/SOFqgtPEpZX2
U5GH2f/YkgApkwGuFfWeAc1qLozdovwYR/nhs1bRmLrwe1mNbrFCO1mPgk6zfhdJ
BKwN9OdpUPo3AwIDAQABoz0wOzAdBgNVHQ4EFgQUZl/npeDkyS04benf1/JHpueV
eskwGgYDVR0RBBMwEYIJbG9jYWxob3N0hwR/AAABMA0GCSqGSIb3DQEBDAUAA4IB
AQCW6ApIIUyyE8EKXzFIpDHKvA4gMJZBBwGTh8kXh6esNtuwQFQIoKf5TEZnRCBU
gbUC01pylcnJlgWnsuTx92pFZqst9q9kprzcfkmWrXQy+m34vCuztRsgBFz9CtT+
zptmdjtsztucP0QhTgCDUhVhKTStjQlmxOOzniMqC/LaU6Yhak0BTEzoG3hRQxK0
9YXumuY7j0ouUAHbs9j0z2JAz0WeisXvK7y4alBSU14DF5nm80MkZmQrCgL/ak56
uUpq472cETH3/vHq77jdZnG3HVmvF18bSYj7NFa9cEC96dknFLsQ9MeHgifmyNiu
gnA6swKzAkaJzTMKY6fR7ofO
-----END CERTIFICATE-----
